target datalayout = "e-m:e-p270:32:32-p271:32:32-p272:64:64-i64:64-i128:128-f80:128-n8:16:32:64-S128"
target triple = "x86_64-pc-linux-gnu"

%struct.AVFilterContext = type { ptr, ptr, ptr, ptr, ptr, i32, ptr, ptr, i32, ptr, ptr, i32, i32, ptr, ptr, ptr, ptr, i32, ptr, i32, i32 }

@.str.20 = private unnamed_addr constant [12 x i8] c"smptehdbars\00", align 1
@smptebars_pix_fmts = internal constant [7 x i32] [i32 0, i32 4, i32 31, i32 5, i32 6, i32 7, i32 -1], align 16

; Function Attrs: nounwind uwtable
define internal i32 @smptebars_query_formats(ptr noundef %0, ptr noundef %1, ptr noundef %2) #1 {
  %4 = alloca i32, align 4
  %5 = alloca ptr, align 8
  %6 = alloca ptr, align 8
  %7 = alloca ptr, align 8
  %8 = alloca i32, align 4
  %9 = alloca i32, align 4
  %10 = alloca i32, align 4
  store ptr %0, ptr %5, align 8, !tbaa !4
  store ptr %1, ptr %6, align 8, !tbaa !33
  store ptr %2, ptr %7, align 8, !tbaa !33
  call void @llvm.lifetime.start.p0(i64 4, ptr %8) #15
  call void @llvm.lifetime.start.p0(i64 4, ptr %9) #15
  %11 = load ptr, ptr %5, align 8, !tbaa !4
  %12 = getelementptr inbounds nuw %struct.AVFilterContext, ptr %11, i32 0, i32 2
  %13 = load ptr, ptr %12, align 8, !tbaa !67
  %14 = call i32 @strcmp(ptr noundef %13, ptr noundef @.str.20) #18
  %15 = icmp ne i32 %14, 0
  br i1 %15, label %17, label %16

16:                                               ; preds = %3
  store i32 1, ptr %8, align 4, !tbaa !36
  br label %18

17:                                               ; preds = %3
  store i32 5, ptr %8, align 4, !tbaa !36
  br label %18

18:                                               ; preds = %17, %16
  %19 = load ptr, ptr %5, align 8, !tbaa !4
  %20 = load ptr, ptr %6, align 8, !tbaa !33
  %21 = load ptr, ptr %7, align 8, !tbaa !33
  %22 = load i32, ptr %8, align 4, !tbaa !36
  %23 = call ptr @ff_make_formats_list_singleton(i32 noundef %22)
  %24 = call i32 @ff_set_common_color_spaces2(ptr noundef %19, ptr noundef %20, ptr noundef %21, ptr noundef %23)
  store i32 %24, ptr %9, align 4, !tbaa !36
  %25 = icmp ne i32 %24, 0
  br i1 %25, label %26, label %28

26:                                               ; preds = %18
  %27 = load i32, ptr %9, align 4, !tbaa !36
  store i32 %27, ptr %4, align 4
  store i32 1, ptr %10, align 4
  br label %42

28:                                               ; preds = %18
  %29 = load ptr, ptr %5, align 8, !tbaa !4
  %30 = load ptr, ptr %6, align 8, !tbaa !33
  %31 = load ptr, ptr %7, align 8, !tbaa !33
  %32 = call ptr @ff_make_formats_list_singleton(i32 noundef 1)
  %33 = call i32 @ff_set_common_color_ranges2(ptr noundef %29, ptr noundef %30, ptr noundef %31, ptr noundef %32)
  store i32 %33, ptr %9, align 4, !tbaa !36
  %34 = icmp ne i32 %33, 0
  br i1 %34, label %35, label %37

35:                                               ; preds = %28
  %36 = load i32, ptr %9, align 4, !tbaa !36
  store i32 %36, ptr %4, align 4
  store i32 1, ptr %10, align 4
  br label %42

37:                                               ; preds = %28
  %38 = load ptr, ptr %5, align 8, !tbaa !4
  %39 = load ptr, ptr %6, align 8, !tbaa !33
  %40 = load ptr, ptr %7, align 8, !tbaa !33
  %41 = call i32 @ff_set_common_formats_from_list2(ptr noundef %38, ptr noundef %39, ptr noundef %40, ptr noundef @smptebars_pix_fmts)
  store i32 %41, ptr %4, align 4
  store i32 1, ptr %10, align 4
  br label %42

42:                                               ; preds = %37, %35, %26
  call void @llvm.lifetime.end.p0(i64 4, ptr %9) #15
  call void @llvm.lifetime.end.p0(i64 4, ptr %8) #15
  %43 = load i32, ptr %4, align 4
  ret i32 %43
}