; Function Attrs: nounwind uwtable
define internal i32 @smptebars_query_formats(ptr noundef %0, ptr noundef %1, ptr noundef %2) #1 {
  %4 = getelementptr inbounds nuw i8, ptr %0, i64 16
  %5 = load ptr, ptr %4, align 8, !tbaa !56
  %6 = tail call i32 @strcmp(ptr noundef nonnull dereferenceable(1) %5, ptr noundef nonnull dereferenceable(12) @.str.20) #22
  %.not = icmp eq i32 %6, 0
  %. = select i1 %.not, i32 1, i32 5
  %7 = tail call ptr @ff_make_formats_list_singleton(i32 noundef %.) #20
  %8 = tail call i32 @ff_set_common_color_spaces2(ptr noundef %0, ptr noundef %1, ptr noundef %2, ptr noundef %7) #20
  %.not16 = icmp eq i32 %8, 0
  br i1 %.not16, label %9, label %14

9:                                                ; preds = %3
  %10 = tail call ptr @ff_make_formats_list_singleton(i32 noundef 1) #20
  %11 = tail call i32 @ff_set_common_color_ranges2(ptr noundef nonnull %0, ptr noundef %1, ptr noundef %2, ptr noundef %10) #20
  %.not17 = icmp eq i32 %11, 0
  br i1 %.not17, label %12, label %14

12:                                               ; preds = %9
  %13 = tail call i32 @ff_set_common_formats_from_list2(ptr noundef nonnull %0, ptr noundef %1, ptr noundef %2, ptr noundef nonnull @smptebars_pix_fmts) #20
  br label %14

14:                                               ; preds = %9, %3, %12
  %.013 = phi i32 [ %13, %12 ], [ %8, %3 ], [ %11, %9 ]
  ret i32 %.013
}